; Function Attrs: mustprogress nounwind uwtable
define void @_ZN6google8protobuf8internal14ArenaStringPtr7DestroyEv(ptr noundef nonnull readonly align 8 captures(none) dereferenceable(8) %this) local_unnamed_addr #7 align 2 {
entry:
  %0 = load ptr, ptr %this, align 8
  %1 = ptrtoint ptr %0 to i64
  %xor.i = xor i64 %1, 2
  %and.i = and i64 %xor.i, 3
  %tobool.not.i = icmp ne i64 %and.i, 0
  %isnull1 = icmp eq ptr %0, inttoptr (i64 2 to ptr)
  %isnull = or i1 %isnull1, %tobool.not.i
  br i1 %isnull, label %delete.end, label %delete.notnull

delete.notnull:                                   ; preds = %entry
  %2 = inttoptr i64 %xor.i to ptr
  tail call void @_ZNSt7__cxx1112basic_stringIcSt11char_traitsIcESaIcEED1Ev(ptr noundef nonnull align 8 dereferenceable(32) %2) #10
  tail call void @_ZdlPv(ptr noundef nonnull %2) #12
  br label %delete.end

delete.end:                                       ; preds = %delete.notnull, %entry
  ret void
}